; Function Attrs: nounwind uwtable
define internal ptr @cfunction_vectorcall_FASTCALL(ptr noundef %0, ptr noundef %1, i64 noundef %2, ptr noundef readonly %3) #0 {
  %5 = tail call align 8 ptr @llvm.threadlocal.address.p0(ptr align 8 @_Py_tss_tstate)
  %6 = load ptr, ptr %5, align 8, !tbaa !26
  %.not.i = icmp eq ptr %3, null
  br i1 %.not.i, label %cfunction_check_kwargs.exit, label %7

7:                                                ; preds = %4
  %8 = getelementptr i8, ptr %3, i64 16
  %.val.i = load i64, ptr %8, align 8, !tbaa !109
  %.not9.i = icmp eq i64 %.val.i, 0
  br i1 %.not9.i, label %cfunction_check_kwargs.exit, label %9

9:                                                ; preds = %7
  %10 = tail call ptr @_PyObject_FunctionStr(ptr noundef %0) #5
  %.not10.i = icmp eq ptr %10, null
  br i1 %.not10.i, label %cfunction_check_kwargs.exit.thread, label %11

11:                                               ; preds = %9
  %12 = load ptr, ptr @PyExc_TypeError, align 8, !tbaa !11
  %13 = tail call ptr (ptr, ptr, ptr, ...) @_PyErr_Format(ptr noundef %6, ptr noundef %12, ptr noundef nonnull @.str.22, ptr noundef nonnull %10) #5
  %14 = load i32, ptr %10, align 8, !tbaa !14
  %.not.i.i = icmp sgt i32 %14, -1
  br i1 %.not.i.i, label %15, label %cfunction_check_kwargs.exit.thread

15:                                               ; preds = %11
  %16 = add nsw i32 %14, -1
  store i32 %16, ptr %10, align 8, !tbaa !14
  %17 = icmp eq i32 %16, 0
  br i1 %17, label %18, label %cfunction_check_kwargs.exit.thread

18:                                               ; preds = %15
  tail call void @_Py_Dealloc(ptr noundef nonnull %10) #5
  br label %cfunction_check_kwargs.exit.thread

cfunction_check_kwargs.exit:                      ; preds = %7, %4
  %19 = and i64 %2, 9223372036854775807
  %20 = getelementptr inbounds nuw i8, ptr %6, i64 52
  %21 = load i32, ptr %20, align 4, !tbaa !111
  %22 = add i32 %21, -1
  store i32 %22, ptr %20, align 4, !tbaa !111
  %.not.i.i14 = icmp sgt i32 %21, -1
  br i1 %.not.i.i14, label %cfunction_enter_call.exit, label %_Py_EnterRecursiveCallTstate.exit.i

_Py_EnterRecursiveCallTstate.exit.i:              ; preds = %cfunction_check_kwargs.exit
  %23 = tail call i32 @_Py_CheckRecursiveCall(ptr noundef nonnull %6, ptr noundef nonnull @.str.23) #5
  %.not4.i = icmp eq i32 %23, 0
  br i1 %.not4.i, label %cfunction_enter_call.exit, label %cfunction_check_kwargs.exit.thread

cfunction_enter_call.exit:                        ; preds = %cfunction_check_kwargs.exit, %_Py_EnterRecursiveCallTstate.exit.i
  %24 = getelementptr i8, ptr %0, i64 16
  %.val.i16 = load ptr, ptr %24, align 8, !tbaa !22
  %25 = getelementptr i8, ptr %.val.i16, i64 8
  %.val.val.i = load ptr, ptr %25, align 8, !tbaa !112
  %26 = icmp eq ptr %.val.val.i, null
  br i1 %26, label %cfunction_check_kwargs.exit.thread, label %27

27:                                               ; preds = %cfunction_enter_call.exit
  %28 = getelementptr inbounds nuw i8, ptr %.val.i16, i64 16
  %29 = load i32, ptr %28, align 8, !tbaa !4
  %30 = and i32 %29, 32
  %.not.i17 = icmp eq i32 %30, 0
  br i1 %.not.i17, label %31, label %PyCFunction_GET_SELF.exit

31:                                               ; preds = %27
  %32 = getelementptr inbounds nuw i8, ptr %0, i64 24
  %33 = load ptr, ptr %32, align 8, !tbaa !23
  br label %PyCFunction_GET_SELF.exit

PyCFunction_GET_SELF.exit:                        ; preds = %27, %31
  %.0.i18 = phi ptr [ %33, %31 ], [ null, %27 ]
  %34 = tail call ptr %.val.val.i(ptr noundef %.0.i18, ptr noundef %1, i64 noundef %19) #5
  %35 = load i32, ptr %20, align 4, !tbaa !111
  %36 = add i32 %35, 1
  store i32 %36, ptr %20, align 4, !tbaa !111
  br label %cfunction_check_kwargs.exit.thread

cfunction_check_kwargs.exit.thread:               ; preds = %_Py_EnterRecursiveCallTstate.exit.i, %18, %15, %11, %9, %PyCFunction_GET_SELF.exit, %cfunction_enter_call.exit
  %.0 = phi ptr [ %34, %PyCFunction_GET_SELF.exit ], [ null, %cfunction_enter_call.exit ], [ null, %9 ], [ null, %11 ], [ null, %15 ], [ null, %18 ], [ null, %_Py_EnterRecursiveCallTstate.exit.i ]
  ret ptr %.0
}